ccopy_reg
_reconstructor
p0
(csklearn.linear_model.base
LinearRegression
p1
cdill._dill
_load_type
p2
(S'ObjectType'
p3
tp4
Rp5
Ntp6
Rp7
(dp8
S'normalize'
p9
I00
sS'n_jobs'
p10
NsS'rank_'
p11
I0
sS'fit_intercept'
p12
I01
sS'_residues'
p13
cnumpy.core.multiarray
_reconstruct
p14
(cnumpy
ndarray
p15
(I0
tp16
S'b'
p17
tp18
Rp19
(I1
(I0
tp20
cnumpy
dtype
p21
(S'f8'
p22
I0
I1
tp23
Rp24
(I3
S'<'
p25
NNNI-1
I-1
I0
tp26
bI00
S''
p27
tp28
bsS'coef_'
p29
g14
(g15
(I0
tp30
g17
tp31
Rp32
(I1
(I1
I1
tp33
g24
I00
S'\x00\x00\x00\x00\x00\x00\x00\x00'
p34
tp35
bsS'_sklearn_version'
p36
S'0.20.3'
p37
sS'copy_X'
p38
I01
sS'intercept_'
p39
g14
(g15
(I0
tp40
g17
tp41
Rp42
(I1
(I1
tp43
g24
I00
S'\x00\x00\x00\x00\x00\x00$@'
p44
tp45
bsS'singular_'
p46
g14
(g15
(I0
tp47
g17
tp48
Rp49
(I1
(I1
tp50
g24
I00
S'\x00\x00\x00\x00\x00\x00\x00\x00'
p51
tp52
bsb.